target datalayout = "e-m:e-p270:32:32-p271:32:32-p272:64:64-i64:64-i128:128-f80:128-n8:16:32:64-S128"
target triple = "x86_64-pc-linux-gnu"

%struct._zend_op_array = type { i8, [3 x i8], i32, ptr, ptr, ptr, i32, i32, ptr, ptr, ptr, ptr, i32, ptr, i32, i32, i32, ptr, ptr, ptr, ptr, ptr, i32, i32, ptr, ptr, ptr, i32, i32, i32, i32, ptr, ptr, [6 x ptr] }
%struct._zend_op = type { ptr, %union._znode_op, %union._znode_op, %union._znode_op, i32, i32, i8, i8, i8, i8 }
%union._znode_op = type { i32 }

; Function Attrs: nounwind uwtable
define hidden ptr @zend_optimizer_get_loop_var_def(ptr noundef %0, ptr noundef %1) #0 {
  %3 = alloca ptr, align 8
  %4 = alloca ptr, align 8
  %5 = alloca ptr, align 8
  %6 = alloca i32, align 4
  %7 = alloca i32, align 4
  store ptr %0, ptr %4, align 8, !tbaa !98
  store ptr %1, ptr %5, align 8, !tbaa !100
  call void @llvm.lifetime.start.p0(i64 4, ptr %6) #13
  %8 = load ptr, ptr %5, align 8, !tbaa !100
  %9 = getelementptr inbounds nuw %struct._zend_op, ptr %8, i32 0, i32 1
  %10 = load i32, ptr %9, align 8, !tbaa !17
  store i32 %10, ptr %6, align 4, !tbaa !29
  br label %11

11:                                               ; preds = %33, %2
  %12 = load ptr, ptr %5, align 8, !tbaa !100
  %13 = getelementptr inbounds %struct._zend_op, ptr %12, i32 -1
  store ptr %13, ptr %5, align 8, !tbaa !100
  %14 = load ptr, ptr %4, align 8, !tbaa !98
  %15 = getelementptr inbounds nuw %struct._zend_op_array, ptr %14, i32 0, i32 17
  %16 = load ptr, ptr %15, align 8, !tbaa !119
  %17 = icmp uge ptr %13, %16
  br i1 %17, label %18, label %34

18:                                               ; preds = %11
  %19 = load ptr, ptr %5, align 8, !tbaa !100
  %20 = getelementptr inbounds nuw %struct._zend_op, ptr %19, i32 0, i32 9
  %21 = load i8, ptr %20, align 1, !tbaa !104
  %22 = zext i8 %21 to i32
  %23 = and i32 %22, 6
  %24 = icmp ne i32 %23, 0
  br i1 %24, label %25, label %33

25:                                               ; preds = %18
  %26 = load ptr, ptr %5, align 8, !tbaa !100
  %27 = getelementptr inbounds nuw %struct._zend_op, ptr %26, i32 0, i32 3
  %28 = load i32, ptr %27, align 8, !tbaa !17
  %29 = load i32, ptr %6, align 4, !tbaa !29
  %30 = icmp eq i32 %28, %29
  br i1 %30, label %31, label %33

31:                                               ; preds = %25
  %32 = load ptr, ptr %5, align 8, !tbaa !100
  store ptr %32, ptr %3, align 8
  store i32 1, ptr %7, align 4
  br label %35

33:                                               ; preds = %25, %18
  br label %11

34:                                               ; preds = %11
  store ptr null, ptr %3, align 8
  store i32 1, ptr %7, align 4
  br label %35

35:                                               ; preds = %34, %31
  call void @llvm.lifetime.end.p0(i64 4, ptr %6) #13
  %36 = load ptr, ptr %3, align 8
  ret ptr %36
}