; Function Attrs: nofree norecurse nosync nounwind memory(argmem: read) uwtable
define hidden ptr @zend_optimizer_get_loop_var_def(ptr noundef readonly captures(none) %0, ptr noundef readonly captures(address, ret: address, provenance) %1) local_unnamed_addr #11 {
  %3 = getelementptr inbounds nuw i8, ptr %1, i64 8
  %4 = load i32, ptr %3, align 8, !tbaa !20
  %5 = getelementptr inbounds nuw i8, ptr %0, i64 104
  %6 = load ptr, ptr %5, align 8, !tbaa !98
  %7 = getelementptr inbounds i8, ptr %1, i64 -32
  %.not10 = icmp ult ptr %7, %6
  br i1 %.not10, label %._crit_edge, label %.lr.ph

.lr.ph:                                           ; preds = %2, %16
  %8 = phi ptr [ %17, %16 ], [ %7, %2 ]
  %.0711 = phi ptr [ %8, %16 ], [ %1, %2 ]
  %9 = getelementptr inbounds i8, ptr %.0711, i64 -1
  %10 = load i8, ptr %9, align 1, !tbaa !85
  %11 = and i8 %10, 6
  %.not9 = icmp eq i8 %11, 0
  br i1 %.not9, label %16, label %12

12:                                               ; preds = %.lr.ph
  %13 = getelementptr inbounds i8, ptr %.0711, i64 -16
  %14 = load i32, ptr %13, align 8, !tbaa !20
  %15 = icmp eq i32 %14, %4
  br i1 %15, label %._crit_edge, label %16

16:                                               ; preds = %12, %.lr.ph
  %17 = getelementptr inbounds i8, ptr %8, i64 -32
  %.not = icmp ult ptr %17, %6
  br i1 %.not, label %._crit_edge, label %.lr.ph

._crit_edge:                                      ; preds = %12, %16, %2
  %.0 = phi ptr [ null, %2 ], [ null, %16 ], [ %8, %12 ]
  ret ptr %.0
}